target datalayout = "e-m:e-p270:32:32-p271:32:32-p272:64:64-i64:64-i128:128-f80:128-n8:16:32:64-S128"
target triple = "x86_64-pc-linux-gnu"

%"struct.xgboost::common::Monitor" = type { %"class.std::__cxx11::basic_string", %"class.std::map", %"struct.xgboost::common::Timer" }
%"class.std::__cxx11::basic_string" = type { %"struct.std::__cxx11::basic_string<char>::_Alloc_hider", i64, %union.anon }
%"struct.std::__cxx11::basic_string<char>::_Alloc_hider" = type { ptr }
%union.anon = type { i64, [8 x i8] }
%"class.std::map" = type { %"class.std::_Rb_tree" }
%"class.std::_Rb_tree" = type { %"struct.std::_Rb_tree<std::__cxx11::basic_string<char>, std::pair<const std::__cxx11::basic_string<char>, xgboost::common::Monitor::Statistics>, std::_Select1st<std::pair<const std::__cxx11::basic_string<char>, xgboost::common::Monitor::Statistics>>, std::less<std::__cxx11::basic_string<char>>>::_Rb_tree_impl" }
%"struct.std::_Rb_tree<std::__cxx11::basic_string<char>, std::pair<const std::__cxx11::basic_string<char>, xgboost::common::Monitor::Statistics>, std::_Select1st<std::pair<const std::__cxx11::basic_string<char>, xgboost::common::Monitor::Statistics>>, std::less<std::__cxx11::basic_string<char>>>::_Rb_tree_impl" = type { [8 x i8], %"struct.std::_Rb_tree_header" }
%"struct.std::_Rb_tree_header" = type { %"struct.std::_Rb_tree_node_base", i64 }
%"struct.std::_Rb_tree_node_base" = type { i32, ptr, ptr, ptr }
%"struct.xgboost::common::Timer" = type { %"class.std::chrono::time_point", %"class.std::chrono::duration" }
%"class.std::chrono::time_point" = type { %"class.std::chrono::duration" }
%"class.std::chrono::duration" = type { i64 }
%"struct.xgboost::common::Monitor::Statistics" = type { %"struct.xgboost::common::Timer", i64, i64 }

; Function Attrs: mustprogress nounwind uwtable
define linkonce_odr void @_ZN7xgboost6common5Timer5StartEv(ptr noundef nonnull align 8 dereferenceable(16) %0) #6 comdat align 2 {
  %2 = alloca ptr, align 8
  %3 = alloca %"class.std::chrono::time_point", align 8
  store ptr %0, ptr %2, align 8, !tbaa !17
  %4 = load ptr, ptr %2, align 8
  call void @llvm.lifetime.start.p0(i64 8, ptr %3) #3
  %5 = call i64 @_ZNSt6chrono3_V212system_clock3nowEv() #3
  %6 = getelementptr inbounds nuw %"class.std::chrono::time_point", ptr %3, i32 0, i32 0
  %7 = getelementptr inbounds nuw %"class.std::chrono::duration", ptr %6, i32 0, i32 0
  store i64 %5, ptr %7, align 8
  %8 = getelementptr inbounds nuw %"struct.xgboost::common::Timer", ptr %4, i32 0, i32 0
  call void @llvm.memcpy.p0.p0.i64(ptr align 8 %8, ptr align 8 %3, i64 8, i1 false), !tbaa.struct !19
  call void @llvm.lifetime.end.p0(i64 8, ptr %3) #3
  ret void
}

; Function Attrs: mustprogress uwtable
define void @_ZN7xgboost6common7Monitor5StartERKNSt7__cxx1112basic_stringIcSt11char_traitsIcESaIcEEE(ptr noundef nonnull align 8 dereferenceable(96) %0, ptr noundef nonnull align 8 dereferenceable(32) %1) #4 align 2 {
  %3 = alloca ptr, align 8
  %4 = alloca ptr, align 8
  %5 = alloca ptr, align 8
  store ptr %0, ptr %3, align 8, !tbaa !3
  store ptr %1, ptr %4, align 8, !tbaa !8
  %6 = load ptr, ptr %3, align 8
  %7 = call noundef zeroext i1 @_ZN7xgboost13ConsoleLogger9ShouldLogENS0_12LogVerbosityE(i32 noundef 3)
  br i1 %7, label %8, label %14

8:                                                ; preds = %2
  call void @llvm.lifetime.start.p0(i64 8, ptr %5) #3
  %9 = getelementptr inbounds nuw %"struct.xgboost::common::Monitor", ptr %6, i32 0, i32 1
  %10 = load ptr, ptr %4, align 8, !tbaa !8
  %11 = call noundef nonnull align 8 dereferenceable(32) ptr @_ZNSt3mapINSt7__cxx1112basic_stringIcSt11char_traitsIcESaIcEEEN7xgboost6common7Monitor10StatisticsESt4lessIS5_ESaISt4pairIKS5_S9_EEEixERSD_(ptr noundef nonnull align 8 dereferenceable(48) %9, ptr noundef nonnull align 8 dereferenceable(32) %10)
  store ptr %11, ptr %5, align 8, !tbaa !10
  %12 = load ptr, ptr %5, align 8, !tbaa !10
  %13 = getelementptr inbounds nuw %"struct.xgboost::common::Monitor::Statistics", ptr %12, i32 0, i32 0
  call void @_ZN7xgboost6common5Timer5StartEv(ptr noundef nonnull align 8 dereferenceable(16) %13)
  call void @llvm.lifetime.end.p0(i64 8, ptr %5) #3
  br label %14

14:                                               ; preds = %8, %2
  ret void
}