; Function Attrs: mustprogress uwtable
define void @_ZN7xgboost6common7Monitor5StartERKNSt7__cxx1112basic_stringIcSt11char_traitsIcESaIcEEE(ptr noundef nonnull align 8 dereferenceable(96) %0, ptr noundef nonnull align 8 dereferenceable(32) %1) local_unnamed_addr #3 align 2 {
  %3 = tail call noundef zeroext i1 @_ZN7xgboost13ConsoleLogger9ShouldLogENS0_12LogVerbosityE(i32 noundef 3)
  br i1 %3, label %4, label %8

4:                                                ; preds = %2
  %5 = getelementptr inbounds nuw i8, ptr %0, i64 32
  %6 = tail call noundef nonnull align 8 dereferenceable(32) ptr @_ZNSt3mapINSt7__cxx1112basic_stringIcSt11char_traitsIcESaIcEEEN7xgboost6common7Monitor10StatisticsESt4lessIS5_ESaISt4pairIKS5_S9_EEEixERSD_(ptr noundef nonnull align 8 dereferenceable(48) %5, ptr noundef nonnull align 8 dereferenceable(32) %1)
  %7 = tail call i64 @_ZNSt6chrono3_V212system_clock3nowEv() #18
  store i64 %7, ptr %6, align 8, !tbaa !3
  br label %8

8:                                                ; preds = %4, %2
  ret void
}